target datalayout = "e-m:e-p270:32:32-p271:32:32-p272:64:64-i64:64-i128:128-f80:128-n8:16:32:64-S128"
target triple = "x86_64-pc-linux-gnu"

%class.DCmdWithParser = type { %class.DCmd.base, %class.DCmdParser }
%class.DCmd.base = type <{ ptr, ptr, i8 }>
%class.DCmdParser = type { ptr, ptr }
%class.DCmdArgument = type { %class.GenDCmdArgument.base, i8, [4 x i8] }
%class.GenDCmdArgument.base = type <{ ptr, ptr, ptr, ptr, ptr, ptr, i8, i8, i8 }>
%class.DCmd = type <{ ptr, ptr, i8, [7 x i8] }>
%class.VM_Operation = type { ptr, ptr }
%class.ThreadDumpDCmd = type { %class.DCmdWithParser, %class.DCmdArgument, %class.DCmdArgument }
%class.VM_PrintThreads = type <{ %class.VM_Operation, ptr, i8, i8, i8, [5 x i8] }>
%class.VM_FindDeadlocks = type { %class.VM_Operation, i8, ptr, ptr, %class.ThreadsListSetter }
%class.ThreadsListSetter = type { %class.SafeThreadsListPtr }
%class.SafeThreadsListPtr = type <{ ptr, ptr, ptr, i8, i8, [6 x i8] }>

@_ZN6Thread12_thr_currentE = external thread_local global ptr, align 8
@_ZTV12VM_Operation = external unnamed_addr constant { [12 x ptr] }, align 8
@_ZTV15VM_PrintThreads = external unnamed_addr constant { [12 x ptr] }, align 8
@_ZTV16VM_FindDeadlocks = external unnamed_addr constant { [12 x ptr] }, align 8

; Function Attrs: mustprogress nounwind uwtable
define linkonce_odr hidden noundef ptr @_ZN6Thread15current_or_nullEv() #1 comdat align 2 {
  %1 = call align 8 ptr @llvm.threadlocal.address.p0(ptr align 8 @_ZN6Thread12_thr_currentE)
  %2 = load ptr, ptr %1, align 8
  ret ptr %2
}

; Function Attrs: mustprogress nounwind uwtable
define linkonce_odr hidden void @_ZN18SafeThreadsListPtrC2EP6Threadb(ptr noundef nonnull align 8 dereferenceable(26) %0, ptr noundef %1, i1 noundef zeroext %2) unnamed_addr #1 comdat align 2 {
  %4 = alloca ptr, align 8
  %5 = alloca ptr, align 8
  %6 = alloca i8, align 1
  store ptr %0, ptr %4, align 8
  store ptr %1, ptr %5, align 8
  %7 = zext i1 %2 to i8
  store i8 %7, ptr %6, align 1
  %8 = load ptr, ptr %4, align 8
  %9 = getelementptr inbounds %class.SafeThreadsListPtr, ptr %8, i32 0, i32 0
  store ptr null, ptr %9, align 8
  %10 = getelementptr inbounds %class.SafeThreadsListPtr, ptr %8, i32 0, i32 1
  %11 = load ptr, ptr %5, align 8
  store ptr %11, ptr %10, align 8
  %12 = getelementptr inbounds %class.SafeThreadsListPtr, ptr %8, i32 0, i32 2
  store ptr null, ptr %12, align 8
  %13 = getelementptr inbounds %class.SafeThreadsListPtr, ptr %8, i32 0, i32 3
  store i8 0, ptr %13, align 8
  %14 = getelementptr inbounds %class.SafeThreadsListPtr, ptr %8, i32 0, i32 4
  store i8 0, ptr %14, align 1
  %15 = load i8, ptr %6, align 1
  %16 = trunc i8 %15 to i1
  br i1 %16, label %17, label %18

17:                                               ; preds = %3
  call void @_ZN18SafeThreadsListPtr19acquire_stable_listEv(ptr noundef nonnull align 8 dereferenceable(26) %8)
  br label %18

18:                                               ; preds = %17, %3
  ret void
}

; Function Attrs: mustprogress nounwind uwtable
define linkonce_odr hidden noundef ptr @_ZN6Thread7currentEv() #1 comdat align 2 {
  %1 = alloca ptr, align 8
  %2 = call noundef ptr @_ZN6Thread15current_or_nullEv()
  store ptr %2, ptr %1, align 8
  %3 = load ptr, ptr %1, align 8
  ret ptr %3
}

; Function Attrs: mustprogress nounwind uwtable
define linkonce_odr hidden void @_ZN17ThreadsListSetterC2Ev(ptr noundef nonnull align 8 dereferenceable(32) %0) unnamed_addr #1 comdat align 2 {
  %2 = alloca ptr, align 8
  store ptr %0, ptr %2, align 8
  %3 = load ptr, ptr %2, align 8
  %4 = getelementptr inbounds %class.ThreadsListSetter, ptr %3, i32 0, i32 0
  %5 = call noundef ptr @_ZN6Thread7currentEv()
  call void @_ZN18SafeThreadsListPtrC2EP6Threadb(ptr noundef nonnull align 8 dereferenceable(26) %4, ptr noundef %5, i1 noundef zeroext false)
  ret void
}

; Function Attrs: mustprogress nounwind uwtable
define linkonce_odr hidden void @_ZN12VM_OperationC2Ev(ptr noundef nonnull align 8 dereferenceable(16) %0) unnamed_addr #1 comdat align 2 {
  %2 = alloca ptr, align 8
  store ptr %0, ptr %2, align 8
  %3 = load ptr, ptr %2, align 8
  store ptr getelementptr inbounds inrange(-16, 80) ({ [12 x ptr] }, ptr @_ZTV12VM_Operation, i32 0, i32 0, i32 2), ptr %3, align 8
  %4 = getelementptr inbounds %class.VM_Operation, ptr %3, i32 0, i32 1
  store ptr null, ptr %4, align 8
  ret void
}

; Function Attrs: mustprogress nounwind uwtable
define linkonce_odr hidden void @_ZN16VM_FindDeadlocksC2EP12outputStream(ptr noundef nonnull align 8 dereferenceable(72) %0, ptr noundef %1) unnamed_addr #1 comdat align 2 {
  %3 = alloca ptr, align 8
  %4 = alloca ptr, align 8
  store ptr %0, ptr %3, align 8
  store ptr %1, ptr %4, align 8
  %5 = load ptr, ptr %3, align 8
  call void @_ZN12VM_OperationC2Ev(ptr noundef nonnull align 8 dereferenceable(16) %5)
  store ptr getelementptr inbounds inrange(-16, 80) ({ [12 x ptr] }, ptr @_ZTV16VM_FindDeadlocks, i32 0, i32 0, i32 2), ptr %5, align 8
  %6 = getelementptr inbounds %class.VM_FindDeadlocks, ptr %5, i32 0, i32 1
  store i8 1, ptr %6, align 8
  %7 = getelementptr inbounds %class.VM_FindDeadlocks, ptr %5, i32 0, i32 2
  store ptr null, ptr %7, align 8
  %8 = getelementptr inbounds %class.VM_FindDeadlocks, ptr %5, i32 0, i32 3
  %9 = load ptr, ptr %4, align 8
  store ptr %9, ptr %8, align 8
  %10 = getelementptr inbounds %class.VM_FindDeadlocks, ptr %5, i32 0, i32 4
  call void @_ZN17ThreadsListSetterC2Ev(ptr noundef nonnull align 8 dereferenceable(32) %10)
  ret void
}

; Function Attrs: mustprogress nounwind uwtable
define linkonce_odr hidden void @_ZN15VM_PrintThreadsC2EP12outputStreambbb(ptr noundef nonnull align 8 dereferenceable(27) %0, ptr noundef %1, i1 noundef zeroext %2, i1 noundef zeroext %3, i1 noundef zeroext %4) unnamed_addr #1 comdat align 2 {
  %6 = alloca ptr, align 8
  %7 = alloca ptr, align 8
  %8 = alloca i8, align 1
  %9 = alloca i8, align 1
  %10 = alloca i8, align 1
  store ptr %0, ptr %6, align 8
  store ptr %1, ptr %7, align 8
  %11 = zext i1 %2 to i8
  store i8 %11, ptr %8, align 1
  %12 = zext i1 %3 to i8
  store i8 %12, ptr %9, align 1
  %13 = zext i1 %4 to i8
  store i8 %13, ptr %10, align 1
  %14 = load ptr, ptr %6, align 8
  call void @_ZN12VM_OperationC2Ev(ptr noundef nonnull align 8 dereferenceable(16) %14)
  store ptr getelementptr inbounds inrange(-16, 80) ({ [12 x ptr] }, ptr @_ZTV15VM_PrintThreads, i32 0, i32 0, i32 2), ptr %14, align 8
  %15 = getelementptr inbounds %class.VM_PrintThreads, ptr %14, i32 0, i32 1
  %16 = load ptr, ptr %7, align 8
  store ptr %16, ptr %15, align 8
  %17 = getelementptr inbounds %class.VM_PrintThreads, ptr %14, i32 0, i32 2
  %18 = load i8, ptr %8, align 1
  %19 = trunc i8 %18 to i1
  %20 = zext i1 %19 to i8
  store i8 %20, ptr %17, align 8
  %21 = getelementptr inbounds %class.VM_PrintThreads, ptr %14, i32 0, i32 3
  %22 = load i8, ptr %9, align 1
  %23 = trunc i8 %22 to i1
  %24 = zext i1 %23 to i8
  store i8 %24, ptr %21, align 1
  %25 = getelementptr inbounds %class.VM_PrintThreads, ptr %14, i32 0, i32 4
  %26 = load i8, ptr %10, align 1
  %27 = trunc i8 %26 to i1
  %28 = zext i1 %27 to i8
  store i8 %28, ptr %25, align 2
  ret void
}

; Function Attrs: mustprogress nounwind uwtable
define linkonce_odr hidden noundef zeroext i1 @_ZNK12DCmdArgumentIbE5valueEv(ptr noundef nonnull align 8 dereferenceable(52) %0) #1 comdat align 2 {
  %2 = alloca ptr, align 8
  store ptr %0, ptr %2, align 8
  %3 = load ptr, ptr %2, align 8
  %4 = getelementptr inbounds %class.DCmdArgument, ptr %3, i32 0, i32 1
  %5 = load i8, ptr %4, align 1
  %6 = trunc i8 %5 to i1
  ret i1 %6
}

; Function Attrs: mustprogress nounwind uwtable
define linkonce_odr hidden noundef ptr @_ZNK4DCmd6outputEv(ptr noundef nonnull align 8 dereferenceable(17) %0) #1 comdat align 2 {
  %2 = alloca ptr, align 8
  store ptr %0, ptr %2, align 8
  %3 = load ptr, ptr %2, align 8
  %4 = getelementptr inbounds %class.DCmd, ptr %3, i32 0, i32 1
  %5 = load ptr, ptr %4, align 8
  ret ptr %5
}

; Function Attrs: mustprogress nounwind uwtable
define hidden void @_ZN14ThreadDumpDCmd7executeE10DCmdSourceP10JavaThread(ptr noundef nonnull align 8 dereferenceable(152) %0, i32 noundef %1, ptr noundef %2) unnamed_addr #1 align 2 {
  %4 = alloca ptr, align 8
  %5 = alloca i32, align 4
  %6 = alloca ptr, align 8
  %7 = alloca %class.VM_PrintThreads, align 8
  %8 = alloca %class.VM_FindDeadlocks, align 8
  store ptr %0, ptr %4, align 8
  store i32 %1, ptr %5, align 4
  store ptr %2, ptr %6, align 8
  %9 = load ptr, ptr %4, align 8
  %10 = call noundef ptr @_ZNK4DCmd6outputEv(ptr noundef nonnull align 8 dereferenceable(17) %9)
  %11 = getelementptr inbounds %class.ThreadDumpDCmd, ptr %9, i32 0, i32 1
  %12 = call noundef zeroext i1 @_ZNK12DCmdArgumentIbE5valueEv(ptr noundef nonnull align 8 dereferenceable(52) %11)
  %13 = getelementptr inbounds %class.ThreadDumpDCmd, ptr %9, i32 0, i32 2
  %14 = call noundef zeroext i1 @_ZNK12DCmdArgumentIbE5valueEv(ptr noundef nonnull align 8 dereferenceable(52) %13)
  call void @_ZN15VM_PrintThreadsC2EP12outputStreambbb(ptr noundef nonnull align 8 dereferenceable(27) %7, ptr noundef %10, i1 noundef zeroext %12, i1 noundef zeroext %14, i1 noundef zeroext true)
  call void @_ZN8VMThread7executeEP12VM_Operation(ptr noundef %7)
  %15 = call noundef ptr @_ZNK4DCmd6outputEv(ptr noundef nonnull align 8 dereferenceable(17) %9)
  call void @_ZN16VM_FindDeadlocksC2EP12outputStream(ptr noundef nonnull align 8 dereferenceable(72) %8, ptr noundef %15)
  call void @_ZN8VMThread7executeEP12VM_Operation(ptr noundef %8)
  call void @_ZN16VM_FindDeadlocksD1Ev(ptr noundef nonnull align 8 dereferenceable(72) %8) #11
  ret void
}