; Function Attrs: mustprogress nounwind uwtable
define hidden void @_ZN14ThreadDumpDCmd7executeE10DCmdSourceP10JavaThread(ptr nocapture noundef nonnull readonly align 8 dereferenceable(152) %0, i32 %1, ptr nocapture readnone %2) unnamed_addr #0 align 2 {
  %4 = alloca %class.VM_PrintThreads, align 8
  %5 = alloca %class.VM_FindDeadlocks, align 8
  %6 = getelementptr inbounds i8, ptr %0, i64 8
  %7 = load ptr, ptr %6, align 8
  %8 = getelementptr inbounds i8, ptr %0, i64 91
  %9 = load i8, ptr %8, align 1
  %10 = getelementptr inbounds i8, ptr %0, i64 147
  %11 = load i8, ptr %10, align 1
  %12 = and i8 %9, 1
  %13 = and i8 %11, 1
  %14 = getelementptr inbounds i8, ptr %4, i64 8
  store ptr null, ptr %14, align 8
  store ptr getelementptr inbounds inrange(-16, 80) (i8, ptr @_ZTV15VM_PrintThreads, i64 16), ptr %4, align 8
  %15 = getelementptr inbounds i8, ptr %4, i64 16
  store ptr %7, ptr %15, align 8
  %16 = getelementptr inbounds i8, ptr %4, i64 24
  store i8 %12, ptr %16, align 8
  %17 = getelementptr inbounds i8, ptr %4, i64 25
  store i8 %13, ptr %17, align 1
  %18 = getelementptr inbounds i8, ptr %4, i64 26
  store i8 1, ptr %18, align 2
  call void @_ZN8VMThread7executeEP12VM_Operation(ptr noundef nonnull %4) #17
  %19 = load ptr, ptr %6, align 8
  %20 = getelementptr inbounds i8, ptr %5, i64 8
  store ptr null, ptr %20, align 8
  store ptr getelementptr inbounds inrange(-16, 80) (i8, ptr @_ZTV16VM_FindDeadlocks, i64 16), ptr %5, align 8
  %21 = getelementptr inbounds i8, ptr %5, i64 16
  store i8 1, ptr %21, align 8
  %22 = getelementptr inbounds i8, ptr %5, i64 24
  store ptr null, ptr %22, align 8
  %23 = getelementptr inbounds i8, ptr %5, i64 32
  store ptr %19, ptr %23, align 8
  %24 = getelementptr inbounds i8, ptr %5, i64 40
  %25 = call align 8 ptr @llvm.threadlocal.address.p0(ptr align 8 @_ZN6Thread12_thr_currentE)
  %26 = load ptr, ptr %25, align 8
  store ptr null, ptr %24, align 8
  %27 = getelementptr inbounds i8, ptr %5, i64 48
  store ptr %26, ptr %27, align 8
  %28 = getelementptr inbounds i8, ptr %5, i64 56
  store ptr null, ptr %28, align 8
  %29 = getelementptr inbounds i8, ptr %5, i64 64
  store i8 0, ptr %29, align 8
  %30 = getelementptr inbounds i8, ptr %5, i64 65
  store i8 0, ptr %30, align 1
  call void @_ZN8VMThread7executeEP12VM_Operation(ptr noundef nonnull %5) #17
  call void @_ZN16VM_FindDeadlocksD1Ev(ptr noundef nonnull align 8 dereferenceable(72) %5) #17
  ret void
}